; Function Attrs: nounwind sspstrong uwtable
define dso_local range(i32 -1, 1) i32 @bdrv_dirty_bitmap_create_successor(ptr noundef captures(none) %bitmap, ptr noundef %errp) local_unnamed_addr #0 {
entry:
  %0 = getelementptr i8, ptr %bitmap, i64 16
  %bitmap.val.i = load i8, ptr %0, align 8
  %tobool.i.i = trunc i8 %bitmap.val.i to i1
  br i1 %tobool.i.i, label %bdrv_dirty_bitmap_check.exit, label %if.end

bdrv_dirty_bitmap_check.exit:                     ; preds = %entry
  %name.i = getelementptr inbounds nuw i8, ptr %bitmap, i64 32
  %1 = load ptr, ptr %name.i, align 8
  tail call void (ptr, ptr, i32, ptr, ptr, ...) @error_setg_internal(ptr noundef %errp, ptr noundef nonnull @.str.1, i32 noundef 183, ptr noundef nonnull @__func__.bdrv_dirty_bitmap_check, ptr noundef nonnull @.str.6, ptr noundef %1) #14
  br label %return

if.end:                                           ; preds = %entry
  %successor.i = getelementptr inbounds nuw i8, ptr %bitmap, i64 24
  %2 = load ptr, ptr %successor.i, align 8
  %tobool.i.not = icmp eq ptr %2, null
  br i1 %tobool.i.not, label %if.end3, label %if.then2

if.then2:                                         ; preds = %if.end
  tail call void (ptr, ptr, i32, ptr, ptr, ...) @error_setg_internal(ptr noundef %errp, ptr noundef nonnull @.str.1, i32 noundef 221, ptr noundef nonnull @__func__.bdrv_dirty_bitmap_create_successor, ptr noundef nonnull @.str.10) #14
  br label %return

if.end3:                                          ; preds = %if.end
  %bitmap1.i = getelementptr inbounds nuw i8, ptr %bitmap, i64 8
  %3 = load ptr, ptr %bitmap1.i, align 8
  %call.i = tail call i32 @hbitmap_granularity(ptr noundef %3) #14
  %shl.i = shl nuw i32 1, %call.i
  %4 = load ptr, ptr %bitmap, align 8
  %call6 = tail call ptr @bdrv_create_dirty_bitmap(ptr noundef %4, i32 noundef %shl.i, ptr noundef null, ptr noundef %errp)
  %tobool7.not = icmp eq ptr %call6, null
  br i1 %tobool7.not, label %return, label %if.end9

if.end9:                                          ; preds = %if.end3
  %disabled = getelementptr inbounds nuw i8, ptr %bitmap, i64 48
  %5 = load i8, ptr %disabled, align 8
  %disabled11 = getelementptr inbounds nuw i8, ptr %call6, i64 48
  %frombool = and i8 %5, 1
  store i8 %frombool, ptr %disabled11, align 8
  store i8 1, ptr %disabled, align 8
  store ptr %call6, ptr %successor.i, align 8
  store i8 1, ptr %0, align 8
  br label %return

return:                                           ; preds = %bdrv_dirty_bitmap_check.exit, %if.end3, %if.end9, %if.then2
  %retval.0 = phi i32 [ -1, %if.then2 ], [ 0, %if.end9 ], [ -1, %bdrv_dirty_bitmap_check.exit ], [ -1, %if.end3 ]
  ret i32 %retval.0
}